; Function Attrs: mustprogress uwtable
define void @_ZN7rocksdb24CompressedSecondaryCache11GetCapacityERm(ptr noalias nocapture writeonly sret(%"class.rocksdb::Status") align 8 %agg.result, ptr noundef nonnull align 8 dereferenceable(217) %this, ptr nocapture noundef nonnull writeonly align 8 dereferenceable(8) %capacity) unnamed_addr #0 align 2 personality ptr @__gxx_personality_v0 {
invoke.cont:
  %capacity_mutex_ = getelementptr inbounds i8, ptr %this, i64 160
  tail call void @_ZN7rocksdb4port5Mutex4LockEv(ptr noundef nonnull align 8 dereferenceable(40) %capacity_mutex_)
  %capacity2 = getelementptr inbounds i8, ptr %this, i64 56
  %0 = load i64, ptr %capacity2, align 8
  store i64 %0, ptr %capacity, align 8
  %state_.i.i = getelementptr inbounds i8, ptr %agg.result, i64 8
  store ptr null, ptr %state_.i.i, align 8, !alias.scope !50
  tail call void @llvm.memset.p0.i64(ptr noundef nonnull align 8 dereferenceable(6) %agg.result, i8 0, i64 6, i1 false), !alias.scope !50
  invoke void @_ZN7rocksdb4port5Mutex6UnlockEv(ptr noundef nonnull align 8 dereferenceable(40) %capacity_mutex_)
          to label %_ZN7rocksdb9MutexLockD2Ev.exit unwind label %terminate.lpad.i

terminate.lpad.i:                                 ; preds = %invoke.cont
  %1 = landingpad { ptr, i32 }
          catch ptr null
  %2 = extractvalue { ptr, i32 } %1, 0
  tail call void @__clang_call_terminate(ptr %2) #22
  unreachable

_ZN7rocksdb9MutexLockD2Ev.exit:                   ; preds = %invoke.cont
  ret void
}